target datalayout = "e-m:e-p270:32:32-p271:32:32-p272:64:64-i64:64-i128:128-f80:128-n8:16:32:64-S128"
target triple = "x86_64-pc-linux-gnu"

%"class.cvc5::internal::Integer" = type { %class.__gmp_expr }
%class.__gmp_expr = type { [1 x %struct.__mpz_struct] }
%struct.__mpz_struct = type { i32, i32, ptr }

; Function Attrs: mustprogress uwtable
define linkonce_odr hidden void @_ZN10__gmp_exprIA1_12__mpz_structS1_EC2ERKS2_(ptr noundef nonnull align 8 dereferenceable(16) %0, ptr noundef nonnull align 8 dereferenceable(16) %1) unnamed_addr #0 comdat align 2 {
  %3 = alloca ptr, align 8
  %4 = alloca ptr, align 8
  store ptr %0, ptr %3, align 8, !tbaa !12
  store ptr %1, ptr %4, align 8, !tbaa !12
  %5 = load ptr, ptr %3, align 8
  %6 = getelementptr inbounds nuw %class.__gmp_expr, ptr %5, i32 0, i32 0
  %7 = getelementptr inbounds [1 x %struct.__mpz_struct], ptr %6, i64 0, i64 0
  %8 = load ptr, ptr %4, align 8, !tbaa !12
  %9 = getelementptr inbounds nuw %class.__gmp_expr, ptr %8, i32 0, i32 0
  %10 = getelementptr inbounds [1 x %struct.__mpz_struct], ptr %9, i64 0, i64 0
  call void @__gmpz_init_set(ptr noundef %7, ptr noundef %10)
  ret void
}

; Function Attrs: mustprogress nounwind uwtable
define linkonce_odr hidden noundef zeroext i1 @_ZN17__gmp_binary_less4evalEPK12__mpz_structl(ptr noundef %0, i64 noundef %1) #3 comdat align 2 {
  %3 = alloca ptr, align 8
  %4 = alloca i64, align 8
  store ptr %0, ptr %3, align 8, !tbaa !30
  store i64 %1, ptr %4, align 8, !tbaa !36
  %5 = load i64, ptr %4, align 8, !tbaa !36
  %6 = icmp sge i64 %5, 0
  %7 = call i1 @llvm.is.constant.i1(i1 %6)
  br i1 %7, label %8, label %37

8:                                                ; preds = %2
  %9 = load i64, ptr %4, align 8, !tbaa !36
  %10 = icmp sge i64 %9, 0
  br i1 %10, label %11, label %37

11:                                               ; preds = %8
  %12 = load i64, ptr %4, align 8, !tbaa !36
  %13 = call i1 @llvm.is.constant.i64(i64 %12)
  br i1 %13, label %14, label %31

14:                                               ; preds = %11
  %15 = load i64, ptr %4, align 8, !tbaa !36
  %16 = icmp eq i64 %15, 0
  br i1 %16, label %17, label %31

17:                                               ; preds = %14
  %18 = load ptr, ptr %3, align 8, !tbaa !30
  %19 = getelementptr inbounds nuw %struct.__mpz_struct, ptr %18, i32 0, i32 1
  %20 = load i32, ptr %19, align 4, !tbaa !35
  %21 = icmp slt i32 %20, 0
  br i1 %21, label %22, label %23

22:                                               ; preds = %17
  br label %29

23:                                               ; preds = %17
  %24 = load ptr, ptr %3, align 8, !tbaa !30
  %25 = getelementptr inbounds nuw %struct.__mpz_struct, ptr %24, i32 0, i32 1
  %26 = load i32, ptr %25, align 4, !tbaa !35
  %27 = icmp sgt i32 %26, 0
  %28 = zext i1 %27 to i32
  br label %29

29:                                               ; preds = %23, %22
  %30 = phi i32 [ -1, %22 ], [ %28, %23 ]
  br label %35

31:                                               ; preds = %14, %11
  %32 = load ptr, ptr %3, align 8, !tbaa !30
  %33 = load i64, ptr %4, align 8, !tbaa !36
  %34 = call i32 @__gmpz_cmp_ui(ptr noundef %32, i64 noundef %33) #19
  br label %35

35:                                               ; preds = %31, %29
  %36 = phi i32 [ %30, %29 ], [ %34, %31 ]
  br label %41

37:                                               ; preds = %8, %2
  %38 = load ptr, ptr %3, align 8, !tbaa !30
  %39 = load i64, ptr %4, align 8, !tbaa !36
  %40 = call i32 @__gmpz_cmp_si(ptr noundef %38, i64 noundef %39) #19
  br label %41

41:                                               ; preds = %37, %35
  %42 = phi i32 [ %36, %35 ], [ %40, %37 ]
  %43 = icmp slt i32 %42, 0
  ret i1 %43
}

; Function Attrs: mustprogress nounwind uwtable
define linkonce_odr hidden noundef ptr @_ZNK10__gmp_exprIA1_12__mpz_structS1_E8__get_mpEv(ptr noundef nonnull align 8 dereferenceable(16) %0) #3 comdat align 2 {
  %2 = alloca ptr, align 8
  store ptr %0, ptr %2, align 8, !tbaa !12
  %3 = load ptr, ptr %2, align 8
  %4 = getelementptr inbounds nuw %class.__gmp_expr, ptr %3, i32 0, i32 0
  %5 = getelementptr inbounds [1 x %struct.__mpz_struct], ptr %4, i64 0, i64 0
  ret ptr %5
}

; Function Attrs: mustprogress uwtable
define linkonce_odr hidden void @_ZN4cvc58internal7IntegerC2ERKS1_(ptr noundef nonnull align 8 dereferenceable(16) %0, ptr noundef nonnull align 8 dereferenceable(16) %1) unnamed_addr #0 comdat align 2 {
  %3 = alloca ptr, align 8
  %4 = alloca ptr, align 8
  store ptr %0, ptr %3, align 8, !tbaa !3
  store ptr %1, ptr %4, align 8, !tbaa !3
  %5 = load ptr, ptr %3, align 8
  %6 = getelementptr inbounds nuw %"class.cvc5::internal::Integer", ptr %5, i32 0, i32 0
  %7 = load ptr, ptr %4, align 8, !tbaa !3
  %8 = getelementptr inbounds nuw %"class.cvc5::internal::Integer", ptr %7, i32 0, i32 0
  call void @_ZN10__gmp_exprIA1_12__mpz_structS1_EC2ERKS2_(ptr noundef nonnull align 8 dereferenceable(16) %6, ptr noundef nonnull align 8 dereferenceable(16) %8)
  ret void
}

; Function Attrs: inlinehint mustprogress uwtable
define linkonce_odr hidden noundef zeroext i1 @_ZgeIA1_12__mpz_structS1_EbRK10__gmp_exprIT_T0_Ei(ptr noundef nonnull align 8 dereferenceable(16) %0, i32 noundef %1) #1 comdat {
  %3 = alloca ptr, align 8
  %4 = alloca i32, align 4
  %5 = alloca ptr, align 8
  store ptr %0, ptr %3, align 8, !tbaa !12
  store i32 %1, ptr %4, align 4, !tbaa !10
  call void @llvm.lifetime.start.p0(i64 8, ptr %5) #16
  %6 = load ptr, ptr %3, align 8, !tbaa !12
  store ptr %6, ptr %5, align 8, !tbaa !12
  %7 = load ptr, ptr %5, align 8, !tbaa !12
  %8 = call noundef ptr @_ZNK10__gmp_exprIA1_12__mpz_structS1_E8__get_mpEv(ptr noundef nonnull align 8 dereferenceable(16) %7)
  %9 = load i32, ptr %4, align 4, !tbaa !10
  %10 = sext i32 %9 to i64
  %11 = call noundef zeroext i1 @_ZN17__gmp_binary_less4evalEPK12__mpz_structl(ptr noundef %8, i64 noundef %10)
  %12 = xor i1 %11, true
  call void @llvm.lifetime.end.p0(i64 8, ptr %5) #16
  ret i1 %12
}

; Function Attrs: mustprogress uwtable
define hidden void @_ZNK4cvc58internal7Integer3absEv(ptr dead_on_unwind noalias writable sret(%"class.cvc5::internal::Integer") align 8 %0, ptr noundef nonnull align 8 dereferenceable(16) %1) #0 align 2 {
  %3 = alloca ptr, align 8
  %4 = alloca ptr, align 8
  store ptr %0, ptr %3, align 8
  store ptr %1, ptr %4, align 8, !tbaa !3
  %5 = load ptr, ptr %4, align 8
  %6 = getelementptr inbounds nuw %"class.cvc5::internal::Integer", ptr %5, i32 0, i32 0
  %7 = call noundef zeroext i1 @_ZgeIA1_12__mpz_structS1_EbRK10__gmp_exprIT_T0_Ei(ptr noundef nonnull align 8 dereferenceable(16) %6, i32 noundef 0)
  br i1 %7, label %8, label %9

8:                                                ; preds = %2
  call void @_ZN4cvc58internal7IntegerC2ERKS1_(ptr noundef nonnull align 8 dereferenceable(16) %0, ptr noundef nonnull align 8 dereferenceable(16) %5)
  br label %10

9:                                                ; preds = %2
  call void @_ZNK4cvc58internal7IntegerngEv(ptr dead_on_unwind writable sret(%"class.cvc5::internal::Integer") align 8 %0, ptr noundef nonnull align 8 dereferenceable(16) %5)
  br label %10

10:                                               ; preds = %9, %8
  ret void
}