; Function Attrs: mustprogress uwtable
define hidden void @_ZNK4cvc58internal7Integer3absEv(ptr dead_on_unwind noalias writable sret(%"class.cvc5::internal::Integer") align 8 %0, ptr noundef nonnull align 8 dereferenceable(16) %1) local_unnamed_addr #0 align 2 {
  %3 = getelementptr inbounds nuw i8, ptr %1, i64 4
  %4 = load i32, ptr %3, align 4, !tbaa !11
  %5 = icmp slt i32 %4, 0
  br i1 %5, label %_ZgeIA1_12__mpz_structS1_EbRK10__gmp_exprIT_T0_Ei.exit, label %6

6:                                                ; preds = %2
  tail call void @__gmpz_init_set(ptr noundef nonnull align 8 dereferenceable(16) %0, ptr noundef nonnull align 8 dereferenceable(16) %1)
  br label %7

_ZgeIA1_12__mpz_structS1_EbRK10__gmp_exprIT_T0_Ei.exit: ; preds = %2
  tail call void @_ZNK4cvc58internal7IntegerngEv(ptr dead_on_unwind writable sret(%"class.cvc5::internal::Integer") align 8 %0, ptr noundef nonnull align 8 dereferenceable(16) %1)
  br label %7

7:                                                ; preds = %_ZgeIA1_12__mpz_structS1_EbRK10__gmp_exprIT_T0_Ei.exit, %6
  ret void
}